target datalayout = "e-m:e-p270:32:32-p271:32:32-p272:64:64-i64:64-i128:128-f80:128-n8:16:32:64-S128"
target triple = "x86_64-pc-linux-gnu"

%struct.magic_set = type { [2 x ptr], %struct.cont, %struct.out, i32, i32, i32, i32, i32, ptr, i64, i32, %struct.anon, %union.VALUETYPE, i16, i16, i16, i16, i16, i16, i64, i64, i64 }
%struct.cont = type { i64, ptr }
%struct.out = type { ptr, i64, ptr }
%struct.anon = type { ptr, i64, i64, i64 }
%union.VALUETYPE = type { [2 x i64], [112 x i8] }

; Function Attrs: nounwind uwtable
define hidden i32 @magic_setparam(ptr noundef %0, i32 noundef %1, ptr noundef %2) #0 {
  %4 = alloca i32, align 4
  %5 = alloca ptr, align 8
  %6 = alloca i32, align 4
  %7 = alloca ptr, align 8
  store ptr %0, ptr %5, align 8
  store i32 %1, ptr %6, align 4
  store ptr %2, ptr %7, align 8
  %8 = load ptr, ptr %5, align 8
  %9 = icmp eq ptr %8, null
  br i1 %9, label %10, label %11

10:                                               ; preds = %3
  store i32 -1, ptr %4, align 4
  br label %66

11:                                               ; preds = %3
  %12 = load i32, ptr %6, align 4
  switch i32 %12, label %64 [
    i32 0, label %13
    i32 1, label %19
    i32 2, label %25
    i32 3, label %31
    i32 8, label %37
    i32 4, label %42
    i32 5, label %48
    i32 6, label %54
    i32 7, label %59
  ]

13:                                               ; preds = %11
  %14 = load ptr, ptr %7, align 8
  %15 = load i64, ptr %14, align 8
  %16 = trunc i64 %15 to i16
  %17 = load ptr, ptr %5, align 8
  %18 = getelementptr inbounds %struct.magic_set, ptr %17, i32 0, i32 13
  store i16 %16, ptr %18, align 8
  store i32 0, ptr %4, align 4
  br label %66

19:                                               ; preds = %11
  %20 = load ptr, ptr %7, align 8
  %21 = load i64, ptr %20, align 8
  %22 = trunc i64 %21 to i16
  %23 = load ptr, ptr %5, align 8
  %24 = getelementptr inbounds %struct.magic_set, ptr %23, i32 0, i32 14
  store i16 %22, ptr %24, align 2
  store i32 0, ptr %4, align 4
  br label %66

25:                                               ; preds = %11
  %26 = load ptr, ptr %7, align 8
  %27 = load i64, ptr %26, align 8
  %28 = trunc i64 %27 to i16
  %29 = load ptr, ptr %5, align 8
  %30 = getelementptr inbounds %struct.magic_set, ptr %29, i32 0, i32 16
  store i16 %28, ptr %30, align 2
  store i32 0, ptr %4, align 4
  br label %66

31:                                               ; preds = %11
  %32 = load ptr, ptr %7, align 8
  %33 = load i64, ptr %32, align 8
  %34 = trunc i64 %33 to i16
  %35 = load ptr, ptr %5, align 8
  %36 = getelementptr inbounds %struct.magic_set, ptr %35, i32 0, i32 15
  store i16 %34, ptr %36, align 4
  store i32 0, ptr %4, align 4
  br label %66

37:                                               ; preds = %11
  %38 = load ptr, ptr %7, align 8
  %39 = load i64, ptr %38, align 8
  %40 = load ptr, ptr %5, align 8
  %41 = getelementptr inbounds %struct.magic_set, ptr %40, i32 0, i32 21
  store i64 %39, ptr %41, align 8
  store i32 0, ptr %4, align 4
  br label %66

42:                                               ; preds = %11
  %43 = load ptr, ptr %7, align 8
  %44 = load i64, ptr %43, align 8
  %45 = trunc i64 %44 to i16
  %46 = load ptr, ptr %5, align 8
  %47 = getelementptr inbounds %struct.magic_set, ptr %46, i32 0, i32 17
  store i16 %45, ptr %47, align 8
  store i32 0, ptr %4, align 4
  br label %66

48:                                               ; preds = %11
  %49 = load ptr, ptr %7, align 8
  %50 = load i64, ptr %49, align 8
  %51 = trunc i64 %50 to i16
  %52 = load ptr, ptr %5, align 8
  %53 = getelementptr inbounds %struct.magic_set, ptr %52, i32 0, i32 18
  store i16 %51, ptr %53, align 2
  store i32 0, ptr %4, align 4
  br label %66

54:                                               ; preds = %11
  %55 = load ptr, ptr %7, align 8
  %56 = load i64, ptr %55, align 8
  %57 = load ptr, ptr %5, align 8
  %58 = getelementptr inbounds %struct.magic_set, ptr %57, i32 0, i32 19
  store i64 %56, ptr %58, align 8
  store i32 0, ptr %4, align 4
  br label %66

59:                                               ; preds = %11
  %60 = load ptr, ptr %7, align 8
  %61 = load i64, ptr %60, align 8
  %62 = load ptr, ptr %5, align 8
  %63 = getelementptr inbounds %struct.magic_set, ptr %62, i32 0, i32 20
  store i64 %61, ptr %63, align 8
  store i32 0, ptr %4, align 4
  br label %66

64:                                               ; preds = %11
  %65 = call ptr @__errno_location() #9
  store i32 22, ptr %65, align 4
  store i32 -1, ptr %4, align 4
  br label %66

66:                                               ; preds = %64, %59, %54, %48, %42, %37, %31, %25, %19, %13, %10
  %67 = load i32, ptr %4, align 4
  ret i32 %67
}