; Function Attrs: mustprogress nofree nosync nounwind willreturn memory(write, argmem: readwrite, inaccessiblemem: none) uwtable
define hidden noundef i32 @magic_setparam(ptr noundef writeonly %0, i32 noundef %1, ptr nocapture noundef readonly %2) local_unnamed_addr #5 {
  %4 = icmp eq ptr %0, null
  br i1 %4, label %41, label %5

5:                                                ; preds = %3
  switch i32 %1, label %39 [
    i32 0, label %6
    i32 1, label %10
    i32 2, label %14
    i32 3, label %18
    i32 8, label %22
    i32 4, label %25
    i32 5, label %29
    i32 6, label %33
    i32 7, label %36
  ]

6:                                                ; preds = %5
  %7 = load i64, ptr %2, align 8
  %8 = trunc i64 %7 to i16
  %9 = getelementptr inbounds i8, ptr %0, i64 264
  store i16 %8, ptr %9, align 8
  br label %41

10:                                               ; preds = %5
  %11 = load i64, ptr %2, align 8
  %12 = trunc i64 %11 to i16
  %13 = getelementptr inbounds i8, ptr %0, i64 266
  store i16 %12, ptr %13, align 2
  br label %41

14:                                               ; preds = %5
  %15 = load i64, ptr %2, align 8
  %16 = trunc i64 %15 to i16
  %17 = getelementptr inbounds i8, ptr %0, i64 270
  store i16 %16, ptr %17, align 2
  br label %41

18:                                               ; preds = %5
  %19 = load i64, ptr %2, align 8
  %20 = trunc i64 %19 to i16
  %21 = getelementptr inbounds i8, ptr %0, i64 268
  store i16 %20, ptr %21, align 4
  br label %41

22:                                               ; preds = %5
  %23 = load i64, ptr %2, align 8
  %24 = getelementptr inbounds i8, ptr %0, i64 296
  store i64 %23, ptr %24, align 8
  br label %41

25:                                               ; preds = %5
  %26 = load i64, ptr %2, align 8
  %27 = trunc i64 %26 to i16
  %28 = getelementptr inbounds i8, ptr %0, i64 272
  store i16 %27, ptr %28, align 8
  br label %41

29:                                               ; preds = %5
  %30 = load i64, ptr %2, align 8
  %31 = trunc i64 %30 to i16
  %32 = getelementptr inbounds i8, ptr %0, i64 274
  store i16 %31, ptr %32, align 2
  br label %41

33:                                               ; preds = %5
  %34 = load i64, ptr %2, align 8
  %35 = getelementptr inbounds i8, ptr %0, i64 280
  store i64 %34, ptr %35, align 8
  br label %41

36:                                               ; preds = %5
  %37 = load i64, ptr %2, align 8
  %38 = getelementptr inbounds i8, ptr %0, i64 288
  store i64 %37, ptr %38, align 8
  br label %41

39:                                               ; preds = %5
  %40 = tail call ptr @__errno_location() #13
  store i32 22, ptr %40, align 4
  br label %41

41:                                               ; preds = %3, %39, %36, %33, %29, %25, %22, %18, %14, %10, %6
  %.0 = phi i32 [ -1, %39 ], [ 0, %36 ], [ 0, %33 ], [ 0, %29 ], [ 0, %25 ], [ 0, %22 ], [ 0, %18 ], [ 0, %14 ], [ 0, %10 ], [ 0, %6 ], [ -1, %3 ]
  ret i32 %.0
}